target datalayout = "e-m:e-p270:32:32-p271:32:32-p272:64:64-i64:64-i128:128-f80:128-n8:16:32:64-S128"
target triple = "x86_64-pc-linux-gnu"

%struct.rotating_node_s = type { ptr, ptr, ptr }

; Function Attrs: nounwind uwtable
define hidden void @RotatingTree_Add(ptr noundef %0, ptr noundef %1) #0 {
  %3 = alloca ptr, align 8
  %4 = alloca ptr, align 8
  store ptr %0, ptr %3, align 8, !tbaa !3
  store ptr %1, ptr %4, align 8, !tbaa !8
  br label %5

5:                                                ; preds = %26, %2
  %6 = load ptr, ptr %3, align 8, !tbaa !3
  %7 = load ptr, ptr %6, align 8, !tbaa !8
  %8 = icmp ne ptr %7, null
  br i1 %8, label %9, label %27

9:                                                ; preds = %5
  %10 = load ptr, ptr %4, align 8, !tbaa !8
  %11 = getelementptr inbounds nuw %struct.rotating_node_s, ptr %10, i32 0, i32 0
  %12 = load ptr, ptr %11, align 8, !tbaa !10
  %13 = load ptr, ptr %3, align 8, !tbaa !3
  %14 = load ptr, ptr %13, align 8, !tbaa !8
  %15 = getelementptr inbounds nuw %struct.rotating_node_s, ptr %14, i32 0, i32 0
  %16 = load ptr, ptr %15, align 8, !tbaa !10
  %17 = icmp ult ptr %12, %16
  br i1 %17, label %18, label %22

18:                                               ; preds = %9
  %19 = load ptr, ptr %3, align 8, !tbaa !3
  %20 = load ptr, ptr %19, align 8, !tbaa !8
  %21 = getelementptr inbounds nuw %struct.rotating_node_s, ptr %20, i32 0, i32 1
  store ptr %21, ptr %3, align 8, !tbaa !3
  br label %26

22:                                               ; preds = %9
  %23 = load ptr, ptr %3, align 8, !tbaa !3
  %24 = load ptr, ptr %23, align 8, !tbaa !8
  %25 = getelementptr inbounds nuw %struct.rotating_node_s, ptr %24, i32 0, i32 2
  store ptr %25, ptr %3, align 8, !tbaa !3
  br label %26

26:                                               ; preds = %22, %18
  br label %5, !llvm.loop !12

27:                                               ; preds = %5
  %28 = load ptr, ptr %4, align 8, !tbaa !8
  %29 = getelementptr inbounds nuw %struct.rotating_node_s, ptr %28, i32 0, i32 1
  store ptr null, ptr %29, align 8, !tbaa !14
  %30 = load ptr, ptr %4, align 8, !tbaa !8
  %31 = getelementptr inbounds nuw %struct.rotating_node_s, ptr %30, i32 0, i32 2
  store ptr null, ptr %31, align 8, !tbaa !15
  %32 = load ptr, ptr %4, align 8, !tbaa !8
  %33 = load ptr, ptr %3, align 8, !tbaa !3
  store ptr %32, ptr %33, align 8, !tbaa !8
  ret void
}