; Function Attrs: nofree norecurse nosync nounwind memory(readwrite, inaccessiblemem: none) uwtable
define hidden void @RotatingTree_Add(ptr noundef captures(none) %0, ptr noundef %1) local_unnamed_addr #0 {
  %3 = load ptr, ptr %0, align 8, !tbaa !3
  %.not10 = icmp eq ptr %3, null
  br i1 %.not10, label %._crit_edge, label %.lr.ph

.lr.ph:                                           ; preds = %2
  %4 = load ptr, ptr %1, align 8, !tbaa !8
  br label %5

5:                                                ; preds = %.lr.ph, %5
  %6 = phi ptr [ %3, %.lr.ph ], [ %9, %5 ]
  %7 = load ptr, ptr %6, align 8, !tbaa !8
  %8 = icmp ult ptr %4, %7
  %.1.v = select i1 %8, i64 8, i64 16
  %.1 = getelementptr inbounds nuw i8, ptr %6, i64 %.1.v
  %9 = load ptr, ptr %.1, align 8, !tbaa !3
  %.not = icmp eq ptr %9, null
  br i1 %.not, label %._crit_edge.loopexit, label %5, !llvm.loop !10

._crit_edge.loopexit:                             ; preds = %5
  %.1.le = getelementptr inbounds nuw i8, ptr %6, i64 %.1.v
  br label %._crit_edge

._crit_edge:                                      ; preds = %._crit_edge.loopexit, %2
  %.0.lcssa = phi ptr [ %0, %2 ], [ %.1.le, %._crit_edge.loopexit ]
  %10 = getelementptr inbounds nuw i8, ptr %1, i64 8
  tail call void @llvm.memset.p0.i64(ptr noundef nonnull align 8 dereferenceable(16) %10, i8 0, i64 16, i1 false)
  store ptr %1, ptr %.0.lcssa, align 8, !tbaa !3
  ret void
}